; Function Attrs: mustprogress uwtable
define void @_ZN17grpc_event_engine12experimental17PosixEndpointImpl11HandleErrorEN4absl12lts_202407226StatusE(ptr noundef nonnull align 16 dereferenceable(904) %0, ptr noundef readonly captures(none) %1) local_unnamed_addr #5 align 2 {
  %3 = load i64, ptr %1, align 8, !tbaa !82
  %4 = icmp eq i64 %3, 1
  br i1 %4, label %5, label %9

5:                                                ; preds = %2
  %6 = getelementptr inbounds nuw i8, ptr %0, i64 822
  %7 = load atomic i8, ptr %6 monotonic, align 2
  %8 = trunc i8 %7 to i1
  br i1 %8, label %9, label %17

9:                                                ; preds = %5, %2
  %10 = getelementptr inbounds nuw i8, ptr %0, i64 8
  %11 = atomicrmw sub ptr %10, i64 1 acq_rel, align 8
  %12 = icmp eq i64 %11, 1
  br i1 %12, label %13, label %_ZNK9grpc_core10RefCountedIN17grpc_event_engine12experimental17PosixEndpointImplENS_19PolymorphicRefCountENS_11UnrefDeleteEE5UnrefEv.exit, !prof !86

13:                                               ; preds = %9
  %14 = load ptr, ptr %0, align 16, !tbaa !80
  %15 = getelementptr inbounds nuw i8, ptr %14, i64 8
  %16 = load ptr, ptr %15, align 8
  tail call void %16(ptr noundef nonnull align 16 dereferenceable(904) %0) #41
  br label %_ZNK9grpc_core10RefCountedIN17grpc_event_engine12experimental17PosixEndpointImplENS_19PolymorphicRefCountENS_11UnrefDeleteEE5UnrefEv.exit

17:                                               ; preds = %5
  %18 = tail call noundef zeroext i1 @_ZN17grpc_event_engine12experimental17PosixEndpointImpl13ProcessErrorsEv(ptr noundef nonnull align 16 dereferenceable(904) %0)
  br i1 %18, label %29, label %19

19:                                               ; preds = %17
  %20 = getelementptr inbounds nuw i8, ptr %0, i64 872
  %21 = load ptr, ptr %20, align 8, !tbaa !79
  %22 = load ptr, ptr %21, align 8, !tbaa !80
  %23 = getelementptr inbounds nuw i8, ptr %22, i64 48
  %24 = load ptr, ptr %23, align 8
  tail call void %24(ptr noundef nonnull align 8 dereferenceable(8) %21)
  %25 = load ptr, ptr %20, align 8, !tbaa !79
  %26 = load ptr, ptr %25, align 8, !tbaa !80
  %27 = getelementptr inbounds nuw i8, ptr %26, i64 56
  %28 = load ptr, ptr %27, align 8
  tail call void %28(ptr noundef nonnull align 8 dereferenceable(8) %25)
  br label %29

29:                                               ; preds = %19, %17
  %30 = getelementptr inbounds nuw i8, ptr %0, i64 872
  %31 = load ptr, ptr %30, align 8, !tbaa !79
  %32 = getelementptr inbounds nuw i8, ptr %0, i64 360
  %33 = load ptr, ptr %32, align 8, !tbaa !281
  %34 = load ptr, ptr %31, align 8, !tbaa !80
  %35 = getelementptr inbounds nuw i8, ptr %34, i64 40
  %36 = load ptr, ptr %35, align 8
  tail call void %36(ptr noundef nonnull align 8 dereferenceable(8) %31, ptr noundef %33)
  br label %_ZNK9grpc_core10RefCountedIN17grpc_event_engine12experimental17PosixEndpointImplENS_19PolymorphicRefCountENS_11UnrefDeleteEE5UnrefEv.exit

_ZNK9grpc_core10RefCountedIN17grpc_event_engine12experimental17PosixEndpointImplENS_19PolymorphicRefCountENS_11UnrefDeleteEE5UnrefEv.exit: ; preds = %13, %9, %29
  ret void
}